; Function Attrs: nounwind uwtable
define hidden i32 @getFD(ptr noundef %0, ptr noundef %1, ptr noundef %2) local_unnamed_addr #0 {
  %4 = load ptr, ptr %0, align 8
  %5 = getelementptr inbounds i8, ptr %4, i64 760
  %6 = load ptr, ptr %5, align 8
  %7 = tail call ptr %6(ptr noundef nonnull %0, ptr noundef %1, ptr noundef %2) #8
  %8 = icmp eq ptr %7, null
  br i1 %8, label %15, label %9

9:                                                ; preds = %3
  %10 = load ptr, ptr %0, align 8
  %11 = getelementptr inbounds i8, ptr %10, i64 800
  %12 = load ptr, ptr %11, align 8
  %13 = load ptr, ptr @IO_fd_fdID, align 8
  %14 = tail call i32 %12(ptr noundef nonnull %0, ptr noundef nonnull %7, ptr noundef %13) #8
  br label %15

15:                                               ; preds = %3, %9
  %.0 = phi i32 [ %14, %9 ], [ -1, %3 ]
  ret i32 %.0
}